; Function Attrs: nounwind uwtable
define ptr @l___private_Lean_Meta_Tactic_Backtrack_0__Lean_Meta_Tactic_Backtrack_Backtrack_processIndependentGoals___lambda__2(ptr noundef %0, ptr noundef %1, ptr noundef %2, ptr noundef %3, ptr noundef %4, ptr noundef %5, ptr noundef %6, ptr noundef %7, ptr noundef %8, ptr noundef %9, ptr noundef %10) #0 {
  %12 = getelementptr inbounds nuw i8, ptr %0, i64 8
  %13 = load ptr, ptr %12, align 8, !tbaa !10
  %14 = ptrtoint ptr %13 to i64
  %15 = and i64 %14, 1
  %.not = icmp eq i64 %15, 0
  br i1 %.not, label %16, label %lean_inc.exit21

16:                                               ; preds = %11
  %.val.i = load i32, ptr %13, align 4, !tbaa !4
  %17 = icmp sgt i32 %.val.i, 0
  br i1 %17, label %18, label %20, !prof !9

18:                                               ; preds = %16
  %19 = add nuw i32 %.val.i, 1
  store i32 %19, ptr %13, align 4, !tbaa !4
  br label %lean_inc.exit21

20:                                               ; preds = %16
  %.not.i22 = icmp eq i32 %.val.i, 0
  br i1 %.not.i22, label %lean_inc.exit21, label %21

21:                                               ; preds = %20
  tail call void @lean_inc_ref_cold(ptr noundef nonnull %13) #4
  br label %lean_inc.exit21

lean_inc.exit21:                                  ; preds = %21, %20, %18, %11
  %22 = ptrtoint ptr %1 to i64
  %23 = and i64 %22, 1
  %.not26 = icmp eq i64 %23, 0
  br i1 %.not26, label %24, label %lean_inc.exit

24:                                               ; preds = %lean_inc.exit21
  %.val.i23 = load i32, ptr %1, align 4, !tbaa !4
  %25 = icmp sgt i32 %.val.i23, 0
  br i1 %25, label %26, label %28, !prof !9

26:                                               ; preds = %24
  %27 = add nuw i32 %.val.i23, 1
  store i32 %27, ptr %1, align 4, !tbaa !4
  br label %lean_inc.exit

28:                                               ; preds = %24
  %.not.i24 = icmp eq i32 %.val.i23, 0
  br i1 %.not.i24, label %lean_inc.exit, label %29

29:                                               ; preds = %28
  tail call void @lean_inc_ref_cold(ptr noundef nonnull %1) #4
  br label %lean_inc.exit

lean_inc.exit:                                    ; preds = %29, %28, %26, %lean_inc.exit21
  tail call void @lean_inc_heartbeat() #4
  %30 = tail call noalias ptr @mi_malloc_small(i64 noundef 24) #4
  %31 = icmp eq ptr %30, null
  br i1 %31, label %32, label %lean_alloc_ctor.exit

32:                                               ; preds = %lean_inc.exit
  tail call void @lean_internal_panic_out_of_memory() #5
  unreachable

lean_alloc_ctor.exit:                             ; preds = %lean_inc.exit
  %33 = getelementptr inbounds nuw i8, ptr %30, i64 4
  store i32 1, ptr %30, align 4, !tbaa !4
  store i32 16908312, ptr %33, align 4
  %34 = getelementptr inbounds nuw i8, ptr %30, i64 8
  store ptr %5, ptr %34, align 8, !tbaa !10
  %35 = getelementptr inbounds nuw i8, ptr %30, i64 16
  store ptr %1, ptr %35, align 8, !tbaa !10
  %36 = tail call ptr @l___private_Lean_Meta_Tactic_Backtrack_0__Lean_Meta_Tactic_Backtrack_Backtrack_run(ptr noundef nonnull %0, ptr noundef %2, ptr noundef %3, ptr noundef %4, ptr noundef %13, ptr noundef nonnull %30, ptr noundef %1, ptr noundef %6, ptr noundef %7, ptr noundef %8, ptr noundef %9, ptr noundef %10)
  br i1 %.not, label %37, label %lean_dec.exit

37:                                               ; preds = %lean_alloc_ctor.exit
  %38 = load i32, ptr %13, align 4, !tbaa !4
  %39 = icmp sgt i32 %38, 1
  br i1 %39, label %40, label %42, !prof !9

40:                                               ; preds = %37
  %41 = add nsw i32 %38, -1
  store i32 %41, ptr %13, align 4, !tbaa !4
  br label %lean_dec.exit

42:                                               ; preds = %37
  %.not.i = icmp eq i32 %38, 0
  br i1 %.not.i, label %lean_dec.exit, label %43

43:                                               ; preds = %42
  tail call void @lean_dec_ref_cold(ptr noundef nonnull %13) #4
  br label %lean_dec.exit

lean_dec.exit:                                    ; preds = %43, %42, %40, %lean_alloc_ctor.exit
  ret ptr %36
}